target datalayout = "e-m:e-p270:32:32-p271:32:32-p272:64:64-i64:64-i128:128-f80:128-n8:16:32:64-S128"
target triple = "x86_64-pc-linux-gnu"

%struct.FunctionCallInfoBaseData = type { ptr, ptr, ptr, i32, i8, i16, [0 x %struct.NullableDatum] }
%struct.NullableDatum = type { i64, i8 }
%struct.Interval = type { i64, i32, i32 }

@.str.3 = private unnamed_addr constant [7 x i8] c"date.c\00", align 1
@.str.23 = private unnamed_addr constant [41 x i8] c"cannot convert infinite interval to time\00", align 1
@__func__.interval_time = private unnamed_addr constant [14 x i8] c"interval_time\00", align 1

; Function Attrs: inlinehint nounwind uwtable
define internal i64 @Int64GetDatum(i64 noundef %0) #4 {
  %2 = alloca i64, align 8
  store i64 %0, ptr %2, align 8
  %3 = load i64, ptr %2, align 8
  ret i64 %3
}

; Function Attrs: inlinehint nounwind uwtable
define internal ptr @DatumGetPointer(i64 noundef %0) #4 {
  %2 = alloca i64, align 8
  store i64 %0, ptr %2, align 8
  %3 = load i64, ptr %2, align 8
  %4 = inttoptr i64 %3 to ptr
  ret ptr %4
}

; Function Attrs: inlinehint nounwind uwtable
define internal i64 @TimeADTGetDatum(i64 noundef %0) #4 {
  %2 = alloca i64, align 8
  store i64 %0, ptr %2, align 8
  %3 = load i64, ptr %2, align 8
  %4 = call i64 @Int64GetDatum(i64 noundef %3)
  ret i64 %4
}

; Function Attrs: inlinehint nounwind uwtable
define internal ptr @DatumGetIntervalP(i64 noundef %0) #4 {
  %2 = alloca i64, align 8
  store i64 %0, ptr %2, align 8
  %3 = load i64, ptr %2, align 8
  %4 = call ptr @DatumGetPointer(i64 noundef %3)
  ret ptr %4
}

; Function Attrs: nounwind uwtable
define dso_local i64 @interval_time(ptr noundef %0) #0 {
  %2 = alloca ptr, align 8
  %3 = alloca ptr, align 8
  %4 = alloca i64, align 8
  store ptr %0, ptr %2, align 8
  call void @llvm.lifetime.start.p0(i64 8, ptr %3) #9
  %5 = load ptr, ptr %2, align 8
  %6 = getelementptr inbounds nuw %struct.FunctionCallInfoBaseData, ptr %5, i32 0, i32 6
  %7 = getelementptr inbounds [0 x %struct.NullableDatum], ptr %6, i64 0, i64 0
  %8 = getelementptr inbounds nuw %struct.NullableDatum, ptr %7, i32 0, i32 0
  %9 = load i64, ptr %8, align 8
  %10 = call ptr @DatumGetIntervalP(i64 noundef %9)
  store ptr %10, ptr %3, align 8
  call void @llvm.lifetime.start.p0(i64 8, ptr %4) #9
  %11 = load ptr, ptr %3, align 8
  %12 = getelementptr inbounds nuw %struct.Interval, ptr %11, i32 0, i32 2
  %13 = load i32, ptr %12, align 4
  %14 = icmp eq i32 %13, -2147483648
  br i1 %14, label %15, label %25

15:                                               ; preds = %1
  %16 = load ptr, ptr %3, align 8
  %17 = getelementptr inbounds nuw %struct.Interval, ptr %16, i32 0, i32 1
  %18 = load i32, ptr %17, align 8
  %19 = icmp eq i32 %18, -2147483648
  br i1 %19, label %20, label %25

20:                                               ; preds = %15
  %21 = load ptr, ptr %3, align 8
  %22 = getelementptr inbounds nuw %struct.Interval, ptr %21, i32 0, i32 0
  %23 = load i64, ptr %22, align 8
  %24 = icmp eq i64 %23, -9223372036854775808
  br i1 %24, label %40, label %25

25:                                               ; preds = %20, %15, %1
  %26 = load ptr, ptr %3, align 8
  %27 = getelementptr inbounds nuw %struct.Interval, ptr %26, i32 0, i32 2
  %28 = load i32, ptr %27, align 4
  %29 = icmp eq i32 %28, 2147483647
  br i1 %29, label %30, label %52

30:                                               ; preds = %25
  %31 = load ptr, ptr %3, align 8
  %32 = getelementptr inbounds nuw %struct.Interval, ptr %31, i32 0, i32 1
  %33 = load i32, ptr %32, align 8
  %34 = icmp eq i32 %33, 2147483647
  br i1 %34, label %35, label %52

35:                                               ; preds = %30
  %36 = load ptr, ptr %3, align 8
  %37 = getelementptr inbounds nuw %struct.Interval, ptr %36, i32 0, i32 0
  %38 = load i64, ptr %37, align 8
  %39 = icmp eq i64 %38, 9223372036854775807
  br i1 %39, label %40, label %52

40:                                               ; preds = %35, %20
  br label %41

41:                                               ; preds = %40
  br i1 true, label %42, label %44

42:                                               ; preds = %41
  %43 = call zeroext i1 @errstart_cold(i32 noundef 21, ptr noundef null) #8
  br i1 %43, label %46, label %49

44:                                               ; preds = %41
  %45 = call zeroext i1 @errstart(i32 noundef 21, ptr noundef null)
  br i1 %45, label %46, label %49

46:                                               ; preds = %44, %42
  %47 = call i32 @errcode(i32 noundef 134217858)
  %48 = call i32 (ptr, ...) @errmsg(ptr noundef @.str.23)
  call void @errfinish(ptr noundef @.str.3, i32 noundef 2039, ptr noundef @__func__.interval_time)
  br label %49

49:                                               ; preds = %46, %44, %42
  unreachable

50:                                               ; No predecessors!
  br label %51

51:                                               ; preds = %50
  br label %52

52:                                               ; preds = %51, %35, %30, %25
  %53 = load ptr, ptr %3, align 8
  %54 = getelementptr inbounds nuw %struct.Interval, ptr %53, i32 0, i32 0
  %55 = load i64, ptr %54, align 8
  %56 = srem i64 %55, 86400000000
  store i64 %56, ptr %4, align 8
  %57 = load i64, ptr %4, align 8
  %58 = icmp slt i64 %57, 0
  br i1 %58, label %59, label %62

59:                                               ; preds = %52
  %60 = load i64, ptr %4, align 8
  %61 = add i64 %60, 86400000000
  store i64 %61, ptr %4, align 8
  br label %62

62:                                               ; preds = %59, %52
  %63 = load i64, ptr %4, align 8
  %64 = call i64 @TimeADTGetDatum(i64 noundef %63)
  call void @llvm.lifetime.end.p0(i64 8, ptr %4) #9
  call void @llvm.lifetime.end.p0(i64 8, ptr %3) #9
  ret i64 %64
}