; Function Attrs: nounwind uwtable
define dso_local range(i64 -86399999999, 172800000000) i64 @interval_time(ptr noundef readonly captures(none) %0) local_unnamed_addr #0 {
  %2 = getelementptr inbounds nuw i8, ptr %0, i64 32
  %3 = load i64, ptr %2, align 8
  %4 = inttoptr i64 %3 to ptr
  %5 = getelementptr inbounds nuw i8, ptr %4, i64 12
  %6 = load i32, ptr %5, align 4
  switch i32 %6, label %..thread_crit_edge [
    i32 -2147483648, label %7
    i32 2147483647, label %12
  ]

..thread_crit_edge:                               ; preds = %1
  %.pre = load i64, ptr %4, align 8
  br label %.thread

7:                                                ; preds = %1
  %8 = getelementptr inbounds nuw i8, ptr %4, i64 8
  %9 = load i32, ptr %8, align 8
  %10 = icmp eq i32 %9, -2147483648
  %.pre11 = load i64, ptr %4, align 8
  %11 = icmp eq i64 %.pre11, -9223372036854775808
  %or.cond = select i1 %10, i1 %11, i1 false
  br i1 %or.cond, label %17, label %.thread

12:                                               ; preds = %1
  %13 = getelementptr inbounds nuw i8, ptr %4, i64 8
  %14 = load i32, ptr %13, align 8
  %15 = icmp eq i32 %14, 2147483647
  %.pre12 = load i64, ptr %4, align 8
  %16 = icmp eq i64 %.pre12, 9223372036854775807
  %or.cond13 = select i1 %15, i1 %16, i1 false
  br i1 %or.cond13, label %17, label %.thread

17:                                               ; preds = %12, %7
  %18 = tail call zeroext i1 @errstart_cold(i32 noundef 21, ptr noundef null) #15
  tail call void @llvm.assume(i1 %18)
  %19 = tail call i32 @errcode(i32 noundef 134217858) #16
  %20 = tail call i32 (ptr, ...) @errmsg(ptr noundef nonnull @.str.23) #16
  tail call void @errfinish(ptr noundef nonnull @.str.3, i32 noundef 2039, ptr noundef nonnull @__func__.interval_time) #16
  unreachable

.thread:                                          ; preds = %..thread_crit_edge, %7, %12
  %21 = phi i64 [ %.pre, %..thread_crit_edge ], [ %.pre11, %7 ], [ %.pre12, %12 ]
  %22 = srem i64 %21, 86400000000
  %23 = icmp slt i64 %22, 0
  %24 = add nsw i64 %22, 86400000000
  %spec.select = select i1 %23, i64 %24, i64 %22
  ret i64 %spec.select
}